; ModuleID = '24/285.c'
source_filename = "24/285.c"
target datalayout = "e-m:e-p270:32:32-p271:32:32-p272:64:64-i64:64-f80:128-n8:16:32:64-S128"
target triple = "x86_64-pc-linux-gnu"

@.str = private unnamed_addr constant [4 x i8] c"%s\0A\00", align 1

; Function Attrs: noinline nounwind uwtable
define dso_local i32 @main() #0 {
  %1 = alloca i32, align 4
  %2 = alloca i32, align 4
  %3 = alloca i32, align 4
  %4 = alloca [500 x i8], align 16
  %5 = alloca [100 x i8], align 16
  %6 = alloca [100 x i8], align 16
  %7 = alloca [100 x i8], align 16
  store i32 0, i32* %1, align 4
  store i32 0, i32* %2, align 4
  %8 = getelementptr inbounds [500 x i8], [500 x i8]* %4, i64 0, i64 0
  %9 = call i32 (i8*, ...) bitcast (i32 (...)* @gets to i32 (i8*, ...)*)(i8* %8)
  store i32 0, i32* %2, align 4
  br label %10

10:                                               ; preds = %25, %0
  %11 = load i32, i32* %2, align 4
  %12 = sext i32 %11 to i64
  %13 = getelementptr inbounds [500 x i8], [500 x i8]* %4, i64 0, i64 %12
  %14 = load i8, i8* %13, align 1
  %15 = sext i8 %14 to i32
  %16 = icmp ne i32 %15, 32
  br i1 %16, label %17, label %28

17:                                               ; preds = %10
  %18 = load i32, i32* %2, align 4
  %19 = sext i32 %18 to i64
  %20 = getelementptr inbounds [500 x i8], [500 x i8]* %4, i64 0, i64 %19
  %21 = load i8, i8* %20, align 1
  %22 = load i32, i32* %2, align 4
  %23 = sext i32 %22 to i64
  %24 = getelementptr inbounds [100 x i8], [100 x i8]* %5, i64 0, i64 %23
  store i8 %21, i8* %24, align 1
  br label %25

25:                                               ; preds = %17
  %26 = load i32, i32* %2, align 4
  %27 = add nsw i32 %26, 1
  store i32 %27, i32* %2, align 4
  br label %10

28:                                               ; preds = %10
  %29 = load i32, i32* %2, align 4
  %30 = sext i32 %29 to i64
  %31 = getelementptr inbounds [100 x i8], [100 x i8]* %5, i64 0, i64 %30
  store i8 0, i8* %31, align 1
  %32 = getelementptr inbounds [100 x i8], [100 x i8]* %7, i64 0, i64 0
  %33 = getelementptr inbounds [100 x i8], [100 x i8]* %5, i64 0, i64 0
  %34 = call i8* @strcpy(i8* %32, i8* %33) #4
  %35 = getelementptr inbounds [100 x i8], [100 x i8]* %6, i64 0, i64 0
  %36 = getelementptr inbounds [100 x i8], [100 x i8]* %5, i64 0, i64 0
  %37 = call i8* @strcpy(i8* %35, i8* %36) #4
  %38 = load i32, i32* %2, align 4
  %39 = add nsw i32 %38, 1
  store i32 %39, i32* %2, align 4
  br label %40

40:                                               ; preds = %108, %28
  %41 = load i32, i32* %2, align 4
  %42 = sext i32 %41 to i64
  %43 = getelementptr inbounds [500 x i8], [500 x i8]* %4, i64 0, i64 %42
  %44 = load i8, i8* %43, align 1
  %45 = icmp ne i8 %44, 0
  br i1 %45, label %46, label %111

46:                                               ; preds = %40
  store i32 0, i32* %3, align 4
  br label %47

47:                                               ; preds = %71, %46
  %48 = load i32, i32* %2, align 4
  %49 = sext i32 %48 to i64
  %50 = getelementptr inbounds [500 x i8], [500 x i8]* %4, i64 0, i64 %49
  %51 = load i8, i8* %50, align 1
  %52 = sext i8 %51 to i32
  %53 = icmp ne i32 %52, 32
  br i1 %53, label %54, label %61

54:                                               ; preds = %47
  %55 = load i32, i32* %2, align 4
  %56 = sext i32 %55 to i64
  %57 = getelementptr inbounds [500 x i8], [500 x i8]* %4, i64 0, i64 %56
  %58 = load i8, i8* %57, align 1
  %59 = sext i8 %58 to i32
  %60 = icmp ne i32 %59, 0
  br label %61

61:                                               ; preds = %54, %47
  %62 = phi i1 [ false, %47 ], [ %60, %54 ]
  br i1 %62, label %63, label %76

63:                                               ; preds = %61
  %64 = load i32, i32* %2, align 4
  %65 = sext i32 %64 to i64
  %66 = getelementptr inbounds [500 x i8], [500 x i8]* %4, i64 0, i64 %65
  %67 = load i8, i8* %66, align 1
  %68 = load i32, i32* %3, align 4
  %69 = sext i32 %68 to i64
  %70 = getelementptr inbounds [100 x i8], [100 x i8]* %5, i64 0, i64 %69
  store i8 %67, i8* %70, align 1
  br label %71

71:                                               ; preds = %63
  %72 = load i32, i32* %2, align 4
  %73 = add nsw i32 %72, 1
  store i32 %73, i32* %2, align 4
  %74 = load i32, i32* %3, align 4
  %75 = add nsw i32 %74, 1
  store i32 %75, i32* %3, align 4
  br label %47

76:                                               ; preds = %61
  %77 = load i32, i32* %3, align 4
  %78 = sext i32 %77 to i64
  %79 = getelementptr inbounds [100 x i8], [100 x i8]* %5, i64 0, i64 %78
  store i8 0, i8* %79, align 1
  %80 = getelementptr inbounds [100 x i8], [100 x i8]* %7, i64 0, i64 0
  %81 = call i64 @strlen(i8* %80) #5
  %82 = getelementptr inbounds [100 x i8], [100 x i8]* %5, i64 0, i64 0
  %83 = call i64 @strlen(i8* %82) #5
  %84 = icmp ult i64 %81, %83
  br i1 %84, label %85, label %89

85:                                               ; preds = %76
  %86 = getelementptr inbounds [100 x i8], [100 x i8]* %7, i64 0, i64 0
  %87 = getelementptr inbounds [100 x i8], [100 x i8]* %5, i64 0, i64 0
  %88 = call i8* @strcpy(i8* %86, i8* %87) #4
  br label %89

89:                                               ; preds = %85, %76
  %90 = getelementptr inbounds [100 x i8], [100 x i8]* %6, i64 0, i64 0
  %91 = call i64 @strlen(i8* %90) #5
  %92 = getelementptr inbounds [100 x i8], [100 x i8]* %5, i64 0, i64 0
  %93 = call i64 @strlen(i8* %92) #5
  %94 = icmp ugt i64 %91, %93
  br i1 %94, label %95, label %99

95:                                               ; preds = %89
  %96 = getelementptr inbounds [100 x i8], [100 x i8]* %6, i64 0, i64 0
  %97 = getelementptr inbounds [100 x i8], [100 x i8]* %5, i64 0, i64 0
  %98 = call i8* @strcpy(i8* %96, i8* %97) #4
  br label %99

99:                                               ; preds = %95, %89
  %100 = load i32, i32* %2, align 4
  %101 = sext i32 %100 to i64
  %102 = getelementptr inbounds [500 x i8], [500 x i8]* %4, i64 0, i64 %101
  %103 = load i8, i8* %102, align 1
  %104 = sext i8 %103 to i32
  %105 = icmp eq i32 %104, 0
  br i1 %105, label %106, label %107

106:                                              ; preds = %99
  br label %111

107:                                              ; preds = %99
  br label %108

108:                                              ; preds = %107
  %109 = load i32, i32* %2, align 4
  %110 = add nsw i32 %109, 1
  store i32 %110, i32* %2, align 4
  br label %40

111:                                              ; preds = %106, %40
  %112 = getelementptr inbounds [100 x i8], [100 x i8]* %7, i64 0, i64 0
  %113 = call i32 (i8*, ...) @printf(i8* getelementptr inbounds ([4 x i8], [4 x i8]* @.str, i64 0, i64 0), i8* %112)
  %114 = getelementptr inbounds [100 x i8], [100 x i8]* %6, i64 0, i64 0
  %115 = call i32 (i8*, ...) @printf(i8* getelementptr inbounds ([4 x i8], [4 x i8]* @.str, i64 0, i64 0), i8* %114)
  ret i32 0
}

declare dso_local i32 @gets(...) #1

; Function Attrs: nounwind
declare dso_local i8* @strcpy(i8*, i8*) #2

; Function Attrs: nounwind readonly
declare dso_local i64 @strlen(i8*) #3

declare dso_local i32 @printf(i8*, ...) #1


!llvm.module.flags = !{!0}
!llvm.ident = !{!1}

!0 = !{i32 1, !"wchar_size", i32 4}
!1 = !{!"clang version 10.0.0-4ubuntu1 "}
